target datalayout = "e-m:e-p270:32:32-p271:32:32-p272:64:64-i64:64-i128:128-f80:128-n8:16:32:64-S128"
target triple = "x86_64-pc-linux-gnu"

%struct.ossl_quic_frame_stream_st = type { i64, i64, i64, ptr, i8 }

; Function Attrs: inlinehint nounwind uwtable
define internal i64 @ossl_quic_vlint_encode_len(i64 noundef %0) #3 {
  %2 = alloca i64, align 8
  %3 = alloca i64, align 8
  store i64 %0, ptr %3, align 8, !tbaa !8
  %4 = load i64, ptr %3, align 8, !tbaa !8
  %5 = icmp ult i64 %4, 64
  br i1 %5, label %6, label %7

6:                                                ; preds = %1
  store i64 1, ptr %2, align 8
  br label %20

7:                                                ; preds = %1
  %8 = load i64, ptr %3, align 8, !tbaa !8
  %9 = icmp ult i64 %8, 16384
  br i1 %9, label %10, label %11

10:                                               ; preds = %7
  store i64 2, ptr %2, align 8
  br label %20

11:                                               ; preds = %7
  %12 = load i64, ptr %3, align 8, !tbaa !8
  %13 = icmp ult i64 %12, 1073741824
  br i1 %13, label %14, label %15

14:                                               ; preds = %11
  store i64 4, ptr %2, align 8
  br label %20

15:                                               ; preds = %11
  %16 = load i64, ptr %3, align 8, !tbaa !8
  %17 = icmp ule i64 %16, 4611686018427387903
  br i1 %17, label %18, label %19

18:                                               ; preds = %15
  store i64 8, ptr %2, align 8
  br label %20

19:                                               ; preds = %15
  store i64 0, ptr %2, align 8
  br label %20

20:                                               ; preds = %19, %18, %14, %10, %6
  %21 = load i64, ptr %2, align 8
  ret i64 %21
}

; Function Attrs: nounwind uwtable
define i64 @ossl_quic_wire_get_encoded_frame_len_stream_hdr(ptr noundef %0) #0 {
  %2 = alloca i64, align 8
  %3 = alloca ptr, align 8
  %4 = alloca i64, align 8
  %5 = alloca i64, align 8
  %6 = alloca i64, align 8
  %7 = alloca i64, align 8
  %8 = alloca i32, align 4
  store ptr %0, ptr %3, align 8, !tbaa !49
  call void @llvm.lifetime.start.p0(i64 8, ptr %4) #7
  call void @llvm.lifetime.start.p0(i64 8, ptr %5) #7
  call void @llvm.lifetime.start.p0(i64 8, ptr %6) #7
  call void @llvm.lifetime.start.p0(i64 8, ptr %7) #7
  %9 = call i64 @ossl_quic_vlint_encode_len(i64 noundef 8)
  store i64 %9, ptr %4, align 8, !tbaa !8
  %10 = load ptr, ptr %3, align 8, !tbaa !49
  %11 = getelementptr inbounds nuw %struct.ossl_quic_frame_stream_st, ptr %10, i32 0, i32 0
  %12 = load i64, ptr %11, align 8, !tbaa !53
  %13 = call i64 @ossl_quic_vlint_encode_len(i64 noundef %12)
  store i64 %13, ptr %5, align 8, !tbaa !8
  %14 = load i64, ptr %4, align 8, !tbaa !8
  %15 = icmp eq i64 %14, 0
  br i1 %15, label %19, label %16

16:                                               ; preds = %1
  %17 = load i64, ptr %5, align 8, !tbaa !8
  %18 = icmp eq i64 %17, 0
  br i1 %18, label %19, label %20

19:                                               ; preds = %16, %1
  store i64 0, ptr %2, align 8
  store i32 1, ptr %8, align 4
  br label %60

20:                                               ; preds = %16
  %21 = load ptr, ptr %3, align 8, !tbaa !49
  %22 = getelementptr inbounds nuw %struct.ossl_quic_frame_stream_st, ptr %21, i32 0, i32 1
  %23 = load i64, ptr %22, align 8, !tbaa !51
  %24 = icmp ugt i64 %23, 0
  br i1 %24, label %25, label %34

25:                                               ; preds = %20
  %26 = load ptr, ptr %3, align 8, !tbaa !49
  %27 = getelementptr inbounds nuw %struct.ossl_quic_frame_stream_st, ptr %26, i32 0, i32 1
  %28 = load i64, ptr %27, align 8, !tbaa !51
  %29 = call i64 @ossl_quic_vlint_encode_len(i64 noundef %28)
  store i64 %29, ptr %6, align 8, !tbaa !8
  %30 = load i64, ptr %6, align 8, !tbaa !8
  %31 = icmp eq i64 %30, 0
  br i1 %31, label %32, label %33

32:                                               ; preds = %25
  store i64 0, ptr %2, align 8
  store i32 1, ptr %8, align 4
  br label %60

33:                                               ; preds = %25
  br label %35

34:                                               ; preds = %20
  store i64 0, ptr %6, align 8, !tbaa !8
  br label %35

35:                                               ; preds = %34, %33
  %36 = load ptr, ptr %3, align 8, !tbaa !49
  %37 = getelementptr inbounds nuw %struct.ossl_quic_frame_stream_st, ptr %36, i32 0, i32 4
  %38 = load i8, ptr %37, align 8
  %39 = and i8 %38, 1
  %40 = zext i8 %39 to i32
  %41 = icmp ne i32 %40, 0
  br i1 %41, label %42, label %51

42:                                               ; preds = %35
  %43 = load ptr, ptr %3, align 8, !tbaa !49
  %44 = getelementptr inbounds nuw %struct.ossl_quic_frame_stream_st, ptr %43, i32 0, i32 2
  %45 = load i64, ptr %44, align 8, !tbaa !54
  %46 = call i64 @ossl_quic_vlint_encode_len(i64 noundef %45)
  store i64 %46, ptr %7, align 8, !tbaa !8
  %47 = load i64, ptr %7, align 8, !tbaa !8
  %48 = icmp eq i64 %47, 0
  br i1 %48, label %49, label %50

49:                                               ; preds = %42
  store i64 0, ptr %2, align 8
  store i32 1, ptr %8, align 4
  br label %60

50:                                               ; preds = %42
  br label %52

51:                                               ; preds = %35
  store i64 0, ptr %7, align 8, !tbaa !8
  br label %52

52:                                               ; preds = %51, %50
  %53 = load i64, ptr %4, align 8, !tbaa !8
  %54 = load i64, ptr %5, align 8, !tbaa !8
  %55 = add i64 %53, %54
  %56 = load i64, ptr %6, align 8, !tbaa !8
  %57 = add i64 %55, %56
  %58 = load i64, ptr %7, align 8, !tbaa !8
  %59 = add i64 %57, %58
  store i64 %59, ptr %2, align 8
  store i32 1, ptr %8, align 4
  br label %60

60:                                               ; preds = %52, %49, %32, %19
  call void @llvm.lifetime.end.p0(i64 8, ptr %7) #7
  call void @llvm.lifetime.end.p0(i64 8, ptr %6) #7
  call void @llvm.lifetime.end.p0(i64 8, ptr %5) #7
  call void @llvm.lifetime.end.p0(i64 8, ptr %4) #7
  %61 = load i64, ptr %2, align 8
  ret i64 %61
}