; Function Attrs: mustprogress nofree norecurse nosync nounwind willreturn memory(argmem: read) uwtable
define range(i64 0, 26) i64 @ossl_quic_wire_get_encoded_frame_len_stream_hdr(ptr noundef readonly captures(none) %0) local_unnamed_addr #5 {
  %2 = load i64, ptr %0, align 8, !tbaa !37
  %3 = icmp ult i64 %2, 64
  br i1 %3, label %select.unfold, label %4

4:                                                ; preds = %1
  %5 = icmp ult i64 %2, 16384
  br i1 %5, label %select.unfold, label %6

6:                                                ; preds = %4
  %7 = icmp ult i64 %2, 1073741824
  br i1 %7, label %select.unfold, label %8

8:                                                ; preds = %6
  %9 = icmp ult i64 %2, 4611686018427387904
  br i1 %9, label %select.unfold, label %ossl_quic_vlint_encode_len.exit

select.unfold:                                    ; preds = %8, %1, %4, %6
  %.0.i.ph = phi i64 [ 5, %6 ], [ 3, %4 ], [ 2, %1 ], [ 9, %8 ]
  %10 = getelementptr inbounds nuw i8, ptr %0, i64 8
  %11 = load i64, ptr %10, align 8, !tbaa !35
  %.not = icmp eq i64 %11, 0
  br i1 %.not, label %ossl_quic_vlint_encode_len.exit24.thread, label %12

12:                                               ; preds = %select.unfold
  %13 = icmp ult i64 %11, 64
  br i1 %13, label %ossl_quic_vlint_encode_len.exit24.thread, label %14

14:                                               ; preds = %12
  %15 = icmp ult i64 %11, 16384
  br i1 %15, label %ossl_quic_vlint_encode_len.exit24.thread, label %16

16:                                               ; preds = %14
  %17 = icmp ult i64 %11, 1073741824
  br i1 %17, label %ossl_quic_vlint_encode_len.exit24.thread, label %18

18:                                               ; preds = %16
  %19 = icmp ult i64 %11, 4611686018427387904
  br i1 %19, label %ossl_quic_vlint_encode_len.exit24.thread, label %ossl_quic_vlint_encode_len.exit

ossl_quic_vlint_encode_len.exit24.thread:         ; preds = %18, %16, %14, %12, %select.unfold
  %.014 = phi i64 [ 0, %select.unfold ], [ 4, %16 ], [ 2, %14 ], [ 1, %12 ], [ 8, %18 ]
  %20 = getelementptr inbounds nuw i8, ptr %0, i64 32
  %21 = load i8, ptr %20, align 8
  %22 = and i8 %21, 1
  %.not21 = icmp eq i8 %22, 0
  br i1 %.not21, label %ossl_quic_vlint_encode_len.exit27.thread, label %23

23:                                               ; preds = %ossl_quic_vlint_encode_len.exit24.thread
  %24 = getelementptr inbounds nuw i8, ptr %0, i64 16
  %25 = load i64, ptr %24, align 8, !tbaa !38
  %26 = icmp ult i64 %25, 64
  br i1 %26, label %ossl_quic_vlint_encode_len.exit27.thread, label %27

27:                                               ; preds = %23
  %28 = icmp ult i64 %25, 16384
  br i1 %28, label %ossl_quic_vlint_encode_len.exit27.thread, label %29

29:                                               ; preds = %27
  %30 = icmp ult i64 %25, 1073741824
  br i1 %30, label %ossl_quic_vlint_encode_len.exit27.thread, label %31

31:                                               ; preds = %29
  %32 = icmp ult i64 %25, 4611686018427387904
  br i1 %32, label %ossl_quic_vlint_encode_len.exit27.thread, label %ossl_quic_vlint_encode_len.exit

ossl_quic_vlint_encode_len.exit27.thread:         ; preds = %31, %29, %27, %23, %ossl_quic_vlint_encode_len.exit24.thread
  %.0 = phi i64 [ 0, %ossl_quic_vlint_encode_len.exit24.thread ], [ 4, %29 ], [ 2, %27 ], [ 1, %23 ], [ 8, %31 ]
  %33 = add nuw nsw i64 %.014, %.0.i.ph
  %34 = add nuw nsw i64 %33, %.0
  br label %ossl_quic_vlint_encode_len.exit

ossl_quic_vlint_encode_len.exit:                  ; preds = %31, %18, %8, %ossl_quic_vlint_encode_len.exit27.thread
  %.015 = phi i64 [ %34, %ossl_quic_vlint_encode_len.exit27.thread ], [ 0, %8 ], [ 0, %18 ], [ 0, %31 ]
  ret i64 %.015
}